target datalayout = "e-m:e-p270:32:32-p271:32:32-p272:64:64-i64:64-i128:128-f80:128-n8:16:32:64-S128"
target triple = "x86_64-pc-linux-gnu"

@Abc_ResCheckNonStrict.Pat0 = internal global [256 x i8] zeroinitializer, align 16
@Abc_ResCheckNonStrict.Pat1 = internal global [256 x i8] zeroinitializer, align 16

; Function Attrs: nounwind uwtable
define i32 @Abc_ResCheckUnique(ptr noundef %0, i32 noundef %1, i32 noundef %2) #0 {
  %4 = alloca i32, align 4
  %5 = alloca ptr, align 8
  %6 = alloca i32, align 4
  %7 = alloca i32, align 4
  %8 = alloca i32, align 4
  store ptr %0, ptr %5, align 8
  store i32 %1, ptr %6, align 4
  store i32 %2, ptr %7, align 4
  store i32 0, ptr %8, align 4
  br label %9

9:                                                ; preds = %24, %3
  %10 = load i32, ptr %8, align 4
  %11 = load i32, ptr %6, align 4
  %12 = icmp slt i32 %10, %11
  br i1 %12, label %13, label %27

13:                                               ; preds = %9
  %14 = load ptr, ptr %5, align 8
  %15 = load i32, ptr %8, align 4
  %16 = sext i32 %15 to i64
  %17 = getelementptr inbounds i8, ptr %14, i64 %16
  %18 = load i8, ptr %17, align 1
  %19 = sext i8 %18 to i32
  %20 = load i32, ptr %7, align 4
  %21 = icmp eq i32 %19, %20
  br i1 %21, label %22, label %23

22:                                               ; preds = %13
  store i32 0, ptr %4, align 4
  br label %28

23:                                               ; preds = %13
  br label %24

24:                                               ; preds = %23
  %25 = load i32, ptr %8, align 4
  %26 = add nsw i32 %25, 1
  store i32 %26, ptr %8, align 4
  br label %9, !llvm.loop !16

27:                                               ; preds = %9
  store i32 1, ptr %4, align 4
  br label %28

28:                                               ; preds = %27, %22
  %29 = load i32, ptr %4, align 4
  ret i32 %29
}

; Function Attrs: nounwind uwtable
define i32 @Abc_ResCheckNonStrict(ptr noundef %0, i32 noundef %1, i32 noundef %2) #0 {
  %4 = alloca ptr, align 8
  %5 = alloca i32, align 4
  %6 = alloca i32, align 4
  %7 = alloca i32, align 4
  %8 = alloca i32, align 4
  %9 = alloca i32, align 4
  %10 = alloca i32, align 4
  %11 = alloca i32, align 4
  %12 = alloca i32, align 4
  store ptr %0, ptr %4, align 8
  store i32 %1, ptr %5, align 4
  store i32 %2, ptr %6, align 4
  %13 = load i32, ptr %6, align 4
  %14 = sub nsw i32 %13, 1
  %15 = shl i32 1, %14
  store i32 %15, ptr %11, align 4
  store i32 0, ptr %12, align 4
  store i32 0, ptr %7, align 4
  br label %16

16:                                               ; preds = %97, %3
  %17 = load i32, ptr %7, align 4
  %18 = load i32, ptr %5, align 4
  %19 = icmp slt i32 %17, %18
  br i1 %19, label %20, label %100

20:                                               ; preds = %16
  store i32 0, ptr %10, align 4
  store i32 0, ptr %9, align 4
  store i32 0, ptr %8, align 4
  br label %21

21:                                               ; preds = %85, %20
  %22 = load i32, ptr %8, align 4
  %23 = load i32, ptr %5, align 4
  %24 = shl i32 1, %23
  %25 = icmp slt i32 %22, %24
  br i1 %25, label %26, label %88

26:                                               ; preds = %21
  %27 = load i32, ptr %8, align 4
  %28 = load i32, ptr %7, align 4
  %29 = shl i32 1, %28
  %30 = and i32 %27, %29
  %31 = icmp eq i32 %30, 0
  br i1 %31, label %32, label %58

32:                                               ; preds = %26
  %33 = load i32, ptr %9, align 4
  %34 = load ptr, ptr %4, align 8
  %35 = load i32, ptr %8, align 4
  %36 = sext i32 %35 to i64
  %37 = getelementptr inbounds i8, ptr %34, i64 %36
  %38 = load i8, ptr %37, align 1
  %39 = sext i8 %38 to i32
  %40 = call i32 @Abc_ResCheckUnique(ptr noundef @Abc_ResCheckNonStrict.Pat0, i32 noundef %33, i32 noundef %39)
  %41 = icmp ne i32 %40, 0
  br i1 %41, label %42, label %57

42:                                               ; preds = %32
  %43 = load ptr, ptr %4, align 8
  %44 = load i32, ptr %8, align 4
  %45 = sext i32 %44 to i64
  %46 = getelementptr inbounds i8, ptr %43, i64 %45
  %47 = load i8, ptr %46, align 1
  %48 = load i32, ptr %9, align 4
  %49 = add nsw i32 %48, 1
  store i32 %49, ptr %9, align 4
  %50 = sext i32 %48 to i64
  %51 = getelementptr inbounds [256 x i8], ptr @Abc_ResCheckNonStrict.Pat0, i64 0, i64 %50
  store i8 %47, ptr %51, align 1
  %52 = load i32, ptr %9, align 4
  %53 = load i32, ptr %11, align 4
  %54 = icmp sgt i32 %52, %53
  br i1 %54, label %55, label %56

55:                                               ; preds = %42
  br label %88

56:                                               ; preds = %42
  br label %57

57:                                               ; preds = %56, %32
  br label %84

58:                                               ; preds = %26
  %59 = load i32, ptr %10, align 4
  %60 = load ptr, ptr %4, align 8
  %61 = load i32, ptr %8, align 4
  %62 = sext i32 %61 to i64
  %63 = getelementptr inbounds i8, ptr %60, i64 %62
  %64 = load i8, ptr %63, align 1
  %65 = sext i8 %64 to i32
  %66 = call i32 @Abc_ResCheckUnique(ptr noundef @Abc_ResCheckNonStrict.Pat1, i32 noundef %59, i32 noundef %65)
  %67 = icmp ne i32 %66, 0
  br i1 %67, label %68, label %83

68:                                               ; preds = %58
  %69 = load ptr, ptr %4, align 8
  %70 = load i32, ptr %8, align 4
  %71 = sext i32 %70 to i64
  %72 = getelementptr inbounds i8, ptr %69, i64 %71
  %73 = load i8, ptr %72, align 1
  %74 = load i32, ptr %10, align 4
  %75 = add nsw i32 %74, 1
  store i32 %75, ptr %10, align 4
  %76 = sext i32 %74 to i64
  %77 = getelementptr inbounds [256 x i8], ptr @Abc_ResCheckNonStrict.Pat1, i64 0, i64 %76
  store i8 %73, ptr %77, align 1
  %78 = load i32, ptr %10, align 4
  %79 = load i32, ptr %11, align 4
  %80 = icmp sgt i32 %78, %79
  br i1 %80, label %81, label %82

81:                                               ; preds = %68
  br label %88

82:                                               ; preds = %68
  br label %83

83:                                               ; preds = %82, %58
  br label %84

84:                                               ; preds = %83, %57
  br label %85

85:                                               ; preds = %84
  %86 = load i32, ptr %8, align 4
  %87 = add nsw i32 %86, 1
  store i32 %87, ptr %8, align 4
  br label %21, !llvm.loop !17

88:                                               ; preds = %81, %55, %21
  %89 = load i32, ptr %8, align 4
  %90 = load i32, ptr %5, align 4
  %91 = shl i32 1, %90
  %92 = icmp eq i32 %89, %91
  br i1 %92, label %93, label %96

93:                                               ; preds = %88
  %94 = load i32, ptr %12, align 4
  %95 = add nsw i32 %94, 1
  store i32 %95, ptr %12, align 4
  br label %96

96:                                               ; preds = %93, %88
  br label %97

97:                                               ; preds = %96
  %98 = load i32, ptr %7, align 4
  %99 = add nsw i32 %98, 1
  store i32 %99, ptr %7, align 4
  br label %16, !llvm.loop !18

100:                                              ; preds = %16
  %101 = load i32, ptr %12, align 4
  ret i32 %101
}