; Function Attrs: nofree norecurse nosync nounwind memory(readwrite, argmem: read, inaccessiblemem: none) uwtable
define i32 @Abc_ResCheckNonStrict(ptr noundef readonly captures(none) %0, i32 noundef %1, i32 noundef %2) local_unnamed_addr #5 {
  %4 = add nsw i32 %2, -1
  %5 = shl nuw i32 1, %4
  %6 = icmp sgt i32 %1, 0
  br i1 %6, label %.preheader.lr.ph, label %._crit_edge66

.preheader.lr.ph:                                 ; preds = %3
  %7 = shl nuw i32 1, %1
  %.not = icmp eq i32 %1, 31
  br i1 %.not, label %._crit_edge66, label %.preheader.us.preheader

.preheader.us.preheader:                          ; preds = %.preheader.lr.ph
  %smax = tail call i32 @llvm.smax.i32(i32 %7, i32 1)
  %wide.trip.count = zext nneg i32 %smax to i64
  br label %.preheader.us

.preheader.us:                                    ; preds = %.preheader.us.preheader, %._crit_edge.us
  %.065.us = phi i32 [ %spec.select.us, %._crit_edge.us ], [ 0, %.preheader.us.preheader ]
  %.02864.us = phi i32 [ %35, %._crit_edge.us ], [ 0, %.preheader.us.preheader ]
  %8 = shl nuw i32 1, %.02864.us
  br label %9

9:                                                ; preds = %.preheader.us, %Abc_ResCheckUnique.exit.us
  %indvars.iv = phi i64 [ 0, %.preheader.us ], [ %indvars.iv.next, %Abc_ResCheckUnique.exit.us ]
  %.02956.us = phi i32 [ 0, %.preheader.us ], [ %.130.us, %Abc_ResCheckUnique.exit.us ]
  %.03155.us = phi i32 [ 0, %.preheader.us ], [ %.132.us, %Abc_ResCheckUnique.exit.us ]
  %10 = trunc nuw nsw i64 %indvars.iv to i32
  %11 = and i32 %8, %10
  %12 = icmp eq i32 %11, 0
  %13 = getelementptr inbounds nuw i8, ptr %0, i64 %indvars.iv
  %14 = load i8, ptr %13, align 1
  br i1 %12, label %24, label %15

15:                                               ; preds = %9
  %16 = icmp sgt i32 %.02956.us, 0
  br i1 %16, label %.lr.ph.preheader.i41.us, label %.loopexit53.us

.lr.ph.preheader.i41.us:                          ; preds = %15
  %wide.trip.count.i42.us = zext nneg i32 %.02956.us to i64
  br label %.lr.ph.i43.us

.lr.ph.i43.us:                                    ; preds = %20, %.lr.ph.preheader.i41.us
  %indvars.iv.i44.us = phi i64 [ 0, %.lr.ph.preheader.i41.us ], [ %indvars.iv.next.i45.us, %20 ]
  %17 = getelementptr inbounds nuw i8, ptr @Abc_ResCheckNonStrict.Pat1, i64 %indvars.iv.i44.us
  %18 = load i8, ptr %17, align 1
  %19 = icmp eq i8 %14, %18
  br i1 %19, label %Abc_ResCheckUnique.exit.us, label %20

20:                                               ; preds = %.lr.ph.i43.us
  %indvars.iv.next.i45.us = add nuw nsw i64 %indvars.iv.i44.us, 1
  %exitcond.not.i46.us = icmp eq i64 %indvars.iv.next.i45.us, %wide.trip.count.i42.us
  br i1 %exitcond.not.i46.us, label %.loopexit53.us, label %.lr.ph.i43.us, !llvm.loop !13

.loopexit53.us:                                   ; preds = %20, %15
  %21 = add nsw i32 %.02956.us, 1
  %22 = sext i32 %.02956.us to i64
  %23 = getelementptr inbounds [256 x i8], ptr @Abc_ResCheckNonStrict.Pat1, i64 0, i64 %22
  store i8 %14, ptr %23, align 1
  %.not37.us = icmp slt i32 %.02956.us, %5
  br i1 %.not37.us, label %Abc_ResCheckUnique.exit.us, label %._crit_edge.us

24:                                               ; preds = %9
  %25 = icmp sgt i32 %.03155.us, 0
  br i1 %25, label %.lr.ph.preheader.i.us, label %.loopexit.us

.lr.ph.preheader.i.us:                            ; preds = %24
  %wide.trip.count.i.us = zext nneg i32 %.03155.us to i64
  br label %.lr.ph.i.us

.lr.ph.i.us:                                      ; preds = %29, %.lr.ph.preheader.i.us
  %indvars.iv.i.us = phi i64 [ 0, %.lr.ph.preheader.i.us ], [ %indvars.iv.next.i.us, %29 ]
  %26 = getelementptr inbounds nuw i8, ptr @Abc_ResCheckNonStrict.Pat0, i64 %indvars.iv.i.us
  %27 = load i8, ptr %26, align 1
  %28 = icmp eq i8 %14, %27
  br i1 %28, label %Abc_ResCheckUnique.exit.us, label %29

29:                                               ; preds = %.lr.ph.i.us
  %indvars.iv.next.i.us = add nuw nsw i64 %indvars.iv.i.us, 1
  %exitcond.not.i.us = icmp eq i64 %indvars.iv.next.i.us, %wide.trip.count.i.us
  br i1 %exitcond.not.i.us, label %.loopexit.us, label %.lr.ph.i.us, !llvm.loop !13

.loopexit.us:                                     ; preds = %29, %24
  %30 = add nsw i32 %.03155.us, 1
  %31 = sext i32 %.03155.us to i64
  %32 = getelementptr inbounds [256 x i8], ptr @Abc_ResCheckNonStrict.Pat0, i64 0, i64 %31
  store i8 %14, ptr %32, align 1
  %.not39.us = icmp slt i32 %.03155.us, %5
  br i1 %.not39.us, label %Abc_ResCheckUnique.exit.us, label %._crit_edge.us

._crit_edge.us:                                   ; preds = %Abc_ResCheckUnique.exit.us, %.loopexit.us, %.loopexit53.us
  %.033.lcssa.us = phi i32 [ %10, %.loopexit53.us ], [ %10, %.loopexit.us ], [ %smax, %Abc_ResCheckUnique.exit.us ]
  %33 = icmp eq i32 %.033.lcssa.us, %7
  %34 = zext i1 %33 to i32
  %spec.select.us = add nuw nsw i32 %.065.us, %34
  %35 = add nuw nsw i32 %.02864.us, 1
  %exitcond71.not = icmp eq i32 %35, %1
  br i1 %exitcond71.not, label %._crit_edge66, label %.preheader.us, !llvm.loop !14

Abc_ResCheckUnique.exit.us:                       ; preds = %.lr.ph.i43.us, %.lr.ph.i.us, %.loopexit.us, %.loopexit53.us
  %.132.us = phi i32 [ %30, %.loopexit.us ], [ %.03155.us, %.loopexit53.us ], [ %.03155.us, %.lr.ph.i.us ], [ %.03155.us, %.lr.ph.i43.us ]
  %.130.us = phi i32 [ %.02956.us, %.loopexit.us ], [ %21, %.loopexit53.us ], [ %.02956.us, %.lr.ph.i.us ], [ %.02956.us, %.lr.ph.i43.us ]
  %indvars.iv.next = add nuw nsw i64 %indvars.iv, 1
  %exitcond.not = icmp eq i64 %indvars.iv.next, %wide.trip.count
  br i1 %exitcond.not, label %._crit_edge.us, label %9, !llvm.loop !15

._crit_edge66:                                    ; preds = %._crit_edge.us, %.preheader.lr.ph, %3
  %.0.lcssa = phi i32 [ 0, %3 ], [ 0, %.preheader.lr.ph ], [ %spec.select.us, %._crit_edge.us ]
  ret i32 %.0.lcssa
}